
ROM_memory.elf:     file format elf32-littleriscv


Disassembly of section .text:

00000000 <_start>:
   0:	2f0000ef          	jal	2f0 <main>

00000004 <load_register_values>:
   4:	00008fb3          	add	t6,ra,zero
   8:	00100093          	li	ra,1
   c:	00108133          	add	sp,ra,ra
  10:	00116193          	ori	gp,sp,1
  14:	00118213          	addi	tp,gp,1
  18:	00220333          	add	t1,tp,sp
  1c:	fff30293          	addi	t0,t1,-1
  20:	00326393          	ori	t2,tp,3
  24:	00338513          	addi	a0,t2,3
  28:	40200433          	neg	s0,sp
  2c:	00850433          	add	s0,a0,s0
  30:	fff50493          	addi	s1,a0,-1
  34:	01438d93          	addi	s11,t2,20
  38:	006487b3          	add	a5,s1,t1
  3c:	01b7f5b3          	and	a1,a5,s11
  40:	40100833          	neg	a6,ra
  44:	40180833          	sub	a6,a6,ra
  48:	001858b3          	srl	a7,a6,ra
  4c:	01187933          	and	s2,a6,a7
  50:	010949b3          	xor	s3,s2,a6
  54:	01c79a13          	slli	s4,a5,0x1c
  58:	4088dab3          	sra	s5,a7,s0
  5c:	4089db93          	srai	s7,s3,0x8
  60:	017aeb33          	or	s6,s5,s7
  64:	00c8f613          	andi	a2,a7,12
  68:	01d8d693          	srli	a3,a7,0x1d
  6c:	002696b3          	sll	a3,a3,sp
  70:	001686b3          	add	a3,a3,ra
  74:	41b95733          	sra	a4,s2,s11
  78:	40170733          	sub	a4,a4,ra
  7c:	0107a813          	slti	a6,a5,16
  80:	00f80833          	add	a6,a6,a5
  84:	01083893          	sltiu	a7,a6,16
  88:	001808b3          	add	a7,a6,ra
  8c:	01392933          	slt	s2,s2,s3
  90:	00188933          	add	s2,a7,ra
  94:	0149b9b3          	sltu	s3,s3,s4
  98:	012989b3          	add	s3,s3,s2
  9c:	001aaa13          	slti	s4,s5,1
  a0:	00198a33          	add	s4,s3,ra
  a4:	001b0b13          	addi	s6,s6,1
  a8:	001b3a93          	seqz	s5,s6
  ac:	014a8ab3          	add	s5,s5,s4
  b0:	001b2b33          	slt	s6,s6,ra
  b4:	015b0b33          	add	s6,s6,s5
  b8:	000bbbb3          	sltu	s7,s7,zero
  bc:	001b0bb3          	add	s7,s6,ra
  c0:	00231c33          	sll	s8,t1,sp
  c4:	ffed8c93          	addi	s9,s11,-2
  c8:	002c0d33          	add	s10,s8,sp
  cc:	00171e13          	slli	t3,a4,0x1
  d0:	000f80b3          	add	ra,t6,zero
  d4:	003e6f93          	ori	t6,t3,3
  d8:	ffef8e93          	addi	t4,t6,-2
  dc:	001fdf13          	srli	t5,t6,0x1
  e0:	001f1f13          	slli	t5,t5,0x1
  e4:	00008067          	ret

000000e8 <test_load_store>:
  e8:	00200f93          	li	t6,2
  ec:	00cf9f93          	slli	t6,t6,0xc
  f0:	00600313          	li	t1,6
  f4:	001f8223          	sb	ra,4(t6)
  f8:	002f9423          	sh	sp,8(t6)
  fc:	003fa623          	sw	gp,12(t6)
 100:	004f8823          	sb	tp,16(t6)
 104:	005f9a23          	sh	t0,20(t6)
 108:	006fac23          	sw	t1,24(t6)
 10c:	007f8e23          	sb	t2,28(t6)
 110:	028f9023          	sh	s0,32(t6)
 114:	029fa223          	sw	s1,36(t6)
 118:	02af8423          	sb	a0,40(t6)
 11c:	02bf9623          	sh	a1,44(t6)
 120:	02cfa823          	sw	a2,48(t6)
 124:	02df8a23          	sb	a3,52(t6)
 128:	02ef9c23          	sh	a4,56(t6)
 12c:	02ffae23          	sw	a5,60(t6)
 130:	050f8023          	sb	a6,64(t6)
 134:	051f9223          	sh	a7,68(t6)
 138:	052fa423          	sw	s2,72(t6)
 13c:	053f8623          	sb	s3,76(t6)
 140:	054f9823          	sh	s4,80(t6)
 144:	055faa23          	sw	s5,84(t6)
 148:	056f8c23          	sb	s6,88(t6)
 14c:	057f9e23          	sh	s7,92(t6)
 150:	078fa023          	sw	s8,96(t6)
 154:	079f8223          	sb	s9,100(t6)
 158:	07af9423          	sh	s10,104(t6)
 15c:	07bfa623          	sw	s11,108(t6)
 160:	07cf8823          	sb	t3,112(t6)
 164:	07df9a23          	sh	t4,116(t6)
 168:	07efac23          	sw	t5,120(t6)
 16c:	07ffae23          	sw	t6,124(t6)
 170:	00000113          	li	sp,0
 174:	00000193          	li	gp,0
 178:	00000213          	li	tp,0
 17c:	00000293          	li	t0,0
 180:	00000313          	li	t1,0
 184:	00000393          	li	t2,0
 188:	00000413          	li	s0,0
 18c:	00000493          	li	s1,0
 190:	00000513          	li	a0,0
 194:	00000593          	li	a1,0
 198:	00000613          	li	a2,0
 19c:	00000693          	li	a3,0
 1a0:	00000713          	li	a4,0
 1a4:	00000793          	li	a5,0
 1a8:	00000813          	li	a6,0
 1ac:	00000893          	li	a7,0
 1b0:	00000913          	li	s2,0
 1b4:	00000993          	li	s3,0
 1b8:	00000a13          	li	s4,0
 1bc:	00000a93          	li	s5,0
 1c0:	00000b13          	li	s6,0
 1c4:	00000b93          	li	s7,0
 1c8:	00000c13          	li	s8,0
 1cc:	00000c93          	li	s9,0
 1d0:	00000d13          	li	s10,0
 1d4:	00000d93          	li	s11,0
 1d8:	00000e13          	li	t3,0
 1dc:	00000e93          	li	t4,0
 1e0:	00000f13          	li	t5,0
 1e4:	00008067          	ret

000001e8 <test_branch>:
 1e8:	00200f93          	li	t6,2
 1ec:	00cf9f93          	slli	t6,t6,0xc
 1f0:	009fc103          	lbu	sp,9(t6)
 1f4:	00010463          	beqz	sp,1fc <X2>
 1f8:	0e80006f          	j	2e0 <failed>

000001fc <X2>:
 1fc:	008f8103          	lb	sp,8(t6)
 200:	fe010ee3          	beqz	sp,1fc <X2>
 204:	00ef9183          	lh	gp,14(t6)
 208:	00119463          	bne	gp,ra,210 <X3>
 20c:	0d40006f          	j	2e0 <failed>

00000210 <X3>:
 210:	00cf9183          	lh	gp,12(t6)
 214:	fe319ee3          	bne	gp,gp,210 <X3>
 218:	010fc203          	lbu	tp,16(t6)

0000021c <X4>:
 21c:	00524063          	blt	tp,t0,21c <X4>
 220:	014fd283          	lhu	t0,20(t6)
 224:	00524463          	blt	tp,t0,22c <X6>
 228:	0b80006f          	j	2e0 <failed>

0000022c <X6>:
 22c:	018fa303          	lw	t1,24(t6)

00000230 <X7>:
 230:	00736063          	bltu	t1,t2,230 <X7>
 234:	01cf8383          	lb	t2,28(t6)
 238:	00736463          	bltu	t1,t2,240 <X8>
 23c:	0a40006f          	j	2e0 <failed>

00000240 <X8>:
 240:	020f9403          	lh	s0,32(t6)
 244:	00945463          	bge	s0,s1,24c <X9>
 248:	0980006f          	j	2e0 <failed>

0000024c <X9>:
 24c:	024fc483          	lbu	s1,36(t6)
 250:	fe945ee3          	bge	s0,s1,24c <X9>
 254:	028fd503          	lhu	a0,40(t6)
 258:	00b57463          	bgeu	a0,a1,260 <X11>
 25c:	0840006f          	j	2e0 <failed>

00000260 <X11>:
 260:	02cfa583          	lw	a1,44(t6)
 264:	feb57ee3          	bgeu	a0,a1,260 <X11>
 268:	030f8603          	lb	a2,48(t6)
 26c:	04b65e63          	bge	a2,a1,2c8 <X27>
 270:	0700006f          	j	2e0 <failed>

00000274 <X13>:
 274:	034f9683          	lh	a3,52(t6)
 278:	038fc703          	lbu	a4,56(t6)
 27c:	fee68ce3          	beq	a3,a4,274 <X13>
 280:	03cfd783          	lhu	a5,60(t6)
 284:	040fa803          	lw	a6,64(t6)
 288:	03079a63          	bne	a5,a6,2bc <X25>

0000028c <X17>:
 28c:	044f8883          	lb	a7,68(t6)
 290:	048f9903          	lh	s2,72(t6)
 294:	ff194ce3          	blt	s2,a7,28c <X17>
 298:	04cfc983          	lbu	s3,76(t6)
 29c:	050fda03          	lhu	s4,80(t6)
 2a0:	0149e863          	bltu	s3,s4,2b0 <X23>

000002a4 <X21>:
 2a4:	054faa83          	lw	s5,84(t6)
 2a8:	058f8b03          	lb	s6,88(t6)
 2ac:	036a9463          	bne	s5,s6,2d4 <X31>

000002b0 <X23>:
 2b0:	05cf9b83          	lh	s7,92(t6)
 2b4:	060fcc03          	lbu	s8,96(t6)
 2b8:	ff8b96e3          	bne	s7,s8,2a4 <X21>

000002bc <X25>:
 2bc:	064fdc83          	lhu	s9,100(t6)
 2c0:	068fad03          	lw	s10,104(t6)
 2c4:	fd9d74e3          	bgeu	s10,s9,28c <X17>

000002c8 <X27>:
 2c8:	06cf8d83          	lb	s11,108(t6)
 2cc:	070fde03          	lhu	t3,112(t6)
 2d0:	fbbe72e3          	bgeu	t3,s11,274 <X13>

000002d4 <X31>:
 2d4:	074fce83          	lbu	t4,116(t6)
 2d8:	000e8463          	beqz	t4,2e0 <failed>
 2dc:	0080006f          	j	2e4 <almost>

000002e0 <failed>:
 2e0:	00000063          	beqz	zero,2e0 <failed>

000002e4 <almost>:
 2e4:	0040006f          	j	2e8 <done>

000002e8 <done>:
 2e8:	078faf03          	lw	t5,120(t6)
 2ec:	00008067          	ret

000002f0 <main>:
 2f0:	d15ff0ef          	jal	4 <load_register_values>
 2f4:	df5ff0ef          	jal	e8 <test_load_store>
 2f8:	ef1ff0ef          	jal	1e8 <test_branch>

000002fc <end>:
 2fc:	00000063          	beqz	zero,2fc <end>
